(dp0
S'Hydromel'
p1
I1
sS'AvatarImage'
p2
S'Avatars\\LeRoi#.png'
p3
sS'Maitre Archer'
p4
I1
sS'Ecuyer'
p5
I2
sS'Pacification'
p6
I2
sS'Garde'
p7
I4
sS'Fou du Roi'
p8
I2
sS'Contre attaquant'
p9
I2
sS'Paladin'
p10
I1
sS'Guerrier lumineux'
p11
I3
sS'Piquier'
p12
I1
sS'Grand Pretre'
p13
I1
sS'Conscription'
p14
I1
sS'Cavalier'
p15
I2
sS'Courtisane'
p16
I2
sS'Fontaine de mana'
p17
I4
sS'Corruption'
p18
I1
s.