(dp0
S'Guerrisseur'
p1
I1
sS'Boule de feu'
p2
I1
sS'Piquier'
p3
I1
sS'Epineux'
p4
I3
sS'Corruption'
p5
I1
sS'Caserne'
p6
I1
sS'Foudre'
p7
I2
sS'Simple soldat'
p8
I3
sS'Diamant'
p9
I1
sS'Garde'
p10
I1
sS'Colosse'
p11
I2
sS'Source de Mort'
p12
I1
sS'Petite Vase'
p13
I2
sS'AvatarImage'
p14
S'Avatars\\Chevalier_noir#.png'
p15
sS'Troll Rouge'
p16
I2
sS'Laboratoire de Genetique'
p17
I1
sS'Fromage'
p18
I1
sS'Immortel'
p19
I1
sS'Assassinat'
p20
I3
sS'Source sacre'
p21
I2
s.