(dp0
S'AvatarImage'
p1
S'Avatars\\Chevalier_noir#.png'
p2
sS'Source sacre'
p3
I2
sS'Troll Rouge'
p4
I2
sS'Diamant'
p5
I1
sS'Guerrisseur'
p6
I1
sS'Loup'
p7
I3
sS'Garde'
p8
I1
sS'Colosse'
p9
I2
sS'Fromage'
p10
I1
sS'Source de Mort'
p11
I1
sS'Piquier'
p12
I1
sS'Immortel'
p13
I1
sS'Laboratoire de Genetique'
p14
I1
sS'Assassinat'
p15
I3
sS'Boule de feu'
p16
I1
sS'Petite Vase'
p17
I2
sS'Epineux'
p18
I3
sS'Corruption'
p19
I1
sS'Caserne'
p20
I1
sS'Foudre'
p21
I2
s.