(dp0
S'Demon des Failles'
p1
I2
sS'Portail demonique'
p2
I2
sS'AvatarImage'
p3
S'Avatars\\Demon#.png'
p4
sS'Demoniste Nain'
p5
I2
sS'Diablotin'
p6
I4
sS'Source de Mort'
p7
I2
sS'Demon cornu'
p8
I4
sS'Voile de mort'
p9
I2
sS'Porte des Enfers'
p10
I1
sS'Boule de feu'
p11
I1
sS'Dragon des Caves'
p12
I2
sS'Hybride'
p13
I2
sS'Infernal'
p14
I4
sS'Foudre'
p15
I2
s.