(dp0
S'AvatarImage'
p1
S'Avatars\\Gobelin#.png'
p2
sS'Troll Rouge'
p3
I4
sS'Gobelin Alchimiste'
p4
I3
sS'Orc au bouclier'
p5
I2
sS'Colosse'
p6
I2
sS'Nuee de Corbeaux'
p7
I2
sS'Regeneration'
p8
I2
sS'Medaille'
p9
I2
sS'Archer Elfe'
p10
I2
sS'Pilleur Gobelin'
p11
I1
sS'Tigre Blanc'
p12
I1
sS'Troll gris'
p13
I4
sS"Marchand d'esclave"
p14
I2
sS'Assassinat'
p15
I2
sS'Chaman Gobelin'
p16
I1
s.