(dp0
S'Coup du lapin'
p1
I2
sS'Traqueur'
p2
I2
sS'AvatarImage'
p3
S'Avatars\\ForetSauvage#.png'
p4
sS'Pluie de feuilles'
p5
I2
sS'Defenseur de la vie'
p6
I2
sS'Hydre Ancestrale'
p7
I2
sS'Seduction'
p8
I2
sS'Treant'
p9
I3
sS'Lutin'
p10
I2
sS'Archer Elfe'
p11
I3
sS'Source de vie'
p12
I2
sS'Tigre Blanc'
p13
I2
sS'Epineux'
p14
I4
sS'Appel de la nature'
p15
I2
s.