(dp0
S'Alteration du monde'
p1
I3
sS'AvatarImage'
p2
S'Avatars\\ArchmageAntonidusHearthstone#.png'
p3
sS'Coup double'
p4
I3
sS'Cheval cauchemard'
p5
I1
sS'Pacification'
p6
I3
sS'Loup sombre'
p7
I4
sS'Source de Mort'
p8
I2
sS'Envasement'
p9
I2
sS'Source de vie'
p10
I2
sS'Maitre des Illusions'
p11
I1
sS'Briseur de Reve'
p12
I3
sS'Epineux'
p13
I3
sS'Grande muraille'
p14
I3
s.