(dp0
S'AvatarImage'
p1
S'Avatars\\Roi_des_Nains#.png'
p2
sS'Avatar de Pierre'
p3
I3
sS'Marteau'
p4
I4
sS'Chargeur de la Mine'
p5
I4
sS'Demoniste Nain'
p6
I3
sS'Mine'
p7
I1
sS'Guerrier Nain'
p8
I4
sS'Bouclier  Magique'
p9
I2
sS'Thorgun le brave'
p10
I2
sS'Fusilier Nain'
p11
I5
sS'Orogatheh le farouche'
p12
I2
sS'Lingots en Or'
p13
I2
sS'Dragon des Caves'
p14
I2
sS'Ingenieur'
p15
I3
s.