(dp0
S'AvatarImage'
p1
S'Avatars\\Legion#.png'
p2
sS'Momie'
p3
I2
sS'Blizzard'
p4
I1
sS'Fantome'
p5
I2
sS'Goule'
p6
I3
sS'Liche'
p7
I2
sS'Vampire'
p8
I1
sS'Squelette'
p9
I3
sS'Source de Mort'
p10
I2
sS'Drain de vie'
p11
I2
sS'Tentacule'
p12
I1
sS'Assassinat'
p13
I1
sS'Petit Squelette'
p14
I2
sS'Zombi'
p15
I1
sS'Terre Morte'
p16
I1
sS'Vent de Defaite'
p17
I1
sS'Fossoyeur'
p18
I1
sS'Necroman'
p19
I1
sS'Abomination'
p20
I3
sS'Silence de mort'
p21
I1
s.