(dp0
S'Tenebreux'
p1
I1
sS'Rodeur des Ombres'
p2
I2
sS"Voleur d'Ames"
p3
I2
sS'Nouvelle Lune'
p4
I1
sS'Assassin Tenebreux'
p5
I2
sS'AvatarImage'
p6
S'Avatars\\SeigneurNoir#.png'
p7
sS'Vengeur Obscur'
p8
I3
sS'Arsenal'
p9
I3
sS'Protecteur Funeste'
p10
I5
sS'Brumes de Torpeur'
p11
I5
sS'Chasseur de Victimes'
p12
I2
sS'Chercheur de Silence'
p13
I2
sS"Fleches d'ombres"
p14
I3
sS'Fontaine de mana'
p15
I3
s.