(dp0
S'Hydromel'
p1
I3
sS'Jeune Guerrier '
p2
I4
sS'Guerrier Viking'
p3
I4
sS'AvatarImage'
p4
S'Avatars\\Vikings#.png'
p5
sS'Grossebaff le Guerrier'
p6
I3
sS'Epieux'
p7
I4
sS'Village'
p8
I4
sS'Sortez Les Moutons'
p9
I2
sS'Berserker'
p10
I3
sS'Odin'
p11
I1
sS'Poteau anti-magie'
p12
I2
s.